target datalayout = "e-m:e-p270:32:32-p271:32:32-p272:64:64-i64:64-i128:128-f80:128-n8:16:32:64-S128"
target triple = "x86_64-pc-linux-gnu"

%struct._address = type { i32, i32, ptr, ptr }
%struct.profile = type { i16, i8, %struct._address, i32, i32, ptr, ptr, ptr, ptr, ptr, ptr, ptr, i32, ptr, ptr, ptr }

; Function Attrs: nounwind uwtable
define internal zeroext i1 @profile_del_cb(ptr noundef %0, i32 noundef %1, ptr noundef %2) #0 {
  %4 = alloca ptr, align 8
  %5 = alloca i32, align 4
  %6 = alloca ptr, align 8
  %7 = alloca ptr, align 8
  store ptr %0, ptr %4, align 8
  store i32 %1, ptr %5, align 4
  store ptr %2, ptr %6, align 8
  %8 = load ptr, ptr %6, align 8
  store ptr %8, ptr %7, align 8
  %9 = load ptr, ptr %7, align 8
  %10 = getelementptr inbounds %struct.profile, ptr %9, i32 0, i32 8
  %11 = load ptr, ptr %10, align 8
  %12 = icmp ne ptr %11, null
  br i1 %12, label %13, label %21

13:                                               ; preds = %3
  %14 = load ptr, ptr %7, align 8
  %15 = getelementptr inbounds %struct.profile, ptr %14, i32 0, i32 8
  %16 = load ptr, ptr %15, align 8
  %17 = load ptr, ptr %7, align 8
  %18 = getelementptr inbounds %struct.profile, ptr %17, i32 0, i32 11
  %19 = load ptr, ptr %18, align 8
  %20 = call ptr @wmem_map_remove(ptr noundef %16, ptr noundef %19)
  br label %21

21:                                               ; preds = %13, %3
  %22 = load ptr, ptr %7, align 8
  %23 = getelementptr inbounds %struct.profile, ptr %22, i32 0, i32 6
  %24 = load ptr, ptr %23, align 8
  call void @wmem_destroy_allocator(ptr noundef %24)
  ret i1 false
}

; Function Attrs: nounwind uwtable
define internal void @profile_del(ptr noundef %0) #0 {
  %2 = alloca ptr, align 8
  store ptr %0, ptr %2, align 8
  %3 = load ptr, ptr %2, align 8
  %4 = icmp ne ptr %3, null
  br i1 %4, label %6, label %5

5:                                                ; preds = %1
  br label %15

6:                                                ; preds = %1
  %7 = load ptr, ptr %2, align 8
  %8 = getelementptr inbounds %struct.profile, ptr %7, i32 0, i32 7
  %9 = load ptr, ptr %8, align 8
  %10 = load ptr, ptr %2, align 8
  %11 = getelementptr inbounds %struct.profile, ptr %10, i32 0, i32 12
  %12 = load i32, ptr %11, align 8
  call void @wmem_unregister_callback(ptr noundef %9, i32 noundef %12)
  %13 = load ptr, ptr %2, align 8
  %14 = call zeroext i1 @profile_del_cb(ptr noundef null, i32 noundef 1, ptr noundef %13)
  br label %15

15:                                               ; preds = %6, %5
  ret void
}

; Function Attrs: nounwind uwtable
define internal void @drop_profiles(ptr noundef %0, ptr noundef %1, ptr noundef %2) #0 {
  %4 = alloca ptr, align 8
  %5 = alloca ptr, align 8
  %6 = alloca ptr, align 8
  %7 = alloca ptr, align 8
  %8 = alloca ptr, align 8
  store ptr %0, ptr %4, align 8
  store ptr %1, ptr %5, align 8
  store ptr %2, ptr %6, align 8
  %9 = load ptr, ptr %5, align 8
  store ptr %9, ptr %7, align 8
  br label %10

10:                                               ; preds = %13, %3
  %11 = load ptr, ptr %7, align 8
  store ptr %11, ptr %8, align 8
  %12 = icmp ne ptr %11, null
  br i1 %12, label %13, label %18

13:                                               ; preds = %10
  %14 = load ptr, ptr %7, align 8
  %15 = getelementptr inbounds %struct.profile, ptr %14, i32 0, i32 15
  %16 = load ptr, ptr %15, align 8
  store ptr %16, ptr %7, align 8
  %17 = load ptr, ptr %8, align 8
  call void @profile_del(ptr noundef %17)
  br label %10, !llvm.loop !22

18:                                               ; preds = %10
  ret void
}