; Function Attrs: nounwind uwtable
define internal void @drop_profiles(ptr readnone captures(none) %0, ptr noundef readonly %1, ptr readnone captures(none) %2) #2 {
  %.not4 = icmp eq ptr %1, null
  br i1 %.not4, label %._crit_edge, label %.lr.ph

.lr.ph:                                           ; preds = %3, %profile_del.exit
  %.05 = phi ptr [ %5, %profile_del.exit ], [ %1, %3 ]
  %4 = getelementptr inbounds nuw i8, ptr %.05, i64 120
  %5 = load ptr, ptr %4, align 8
  %6 = getelementptr inbounds nuw i8, ptr %.05, i64 56
  %7 = load ptr, ptr %6, align 8
  %8 = getelementptr inbounds nuw i8, ptr %.05, i64 96
  %9 = load i32, ptr %8, align 8
  tail call void @wmem_unregister_callback(ptr noundef %7, i32 noundef %9) #18
  %10 = getelementptr inbounds nuw i8, ptr %.05, i64 64
  %11 = load ptr, ptr %10, align 8
  %.not.i.i = icmp eq ptr %11, null
  br i1 %.not.i.i, label %profile_del.exit, label %12

12:                                               ; preds = %.lr.ph
  %13 = getelementptr inbounds nuw i8, ptr %.05, i64 88
  %14 = load ptr, ptr %13, align 8
  %15 = tail call ptr @wmem_map_remove(ptr noundef nonnull %11, ptr noundef %14) #18
  br label %profile_del.exit

profile_del.exit:                                 ; preds = %.lr.ph, %12
  %16 = getelementptr inbounds nuw i8, ptr %.05, i64 48
  %17 = load ptr, ptr %16, align 8
  tail call void @wmem_destroy_allocator(ptr noundef %17) #18
  %.not = icmp eq ptr %5, null
  br i1 %.not, label %._crit_edge, label %.lr.ph, !llvm.loop !22

._crit_edge:                                      ; preds = %profile_del.exit, %3
  ret void
}